target datalayout = "e-m:e-p270:32:32-p271:32:32-p272:64:64-i64:64-i128:128-f80:128-n8:16:32:64-S128"
target triple = "x86_64-pc-linux-gnu"

%struct.st_engine_pile = type { i32, ptr, ptr, i32 }
%struct.st_engine_table = type { %struct.lhash_st_ENGINE_PILE }
%struct.lhash_st_ENGINE_PILE = type { %union.lh_ENGINE_PILE_dummy }
%union.lh_ENGINE_PILE_dummy = type { ptr }

@global_engine_lock = external global ptr, align 8
@.str = private unnamed_addr constant [37 x i8] c"../openssl/crypto/engine/eng_table.c\00", align 1
@__func__.engine_table_register = private unnamed_addr constant [22 x i8] c"engine_table_register\00", align 1

; Function Attrs: inlinehint nounwind uwtable
define internal ptr @lh_ENGINE_PILE_new(ptr noundef %0, ptr noundef %1) #3 {
  %3 = alloca ptr, align 8
  %4 = alloca ptr, align 8
  store ptr %0, ptr %3, align 8, !tbaa !10
  store ptr %1, ptr %4, align 8, !tbaa !10
  %5 = load ptr, ptr %3, align 8, !tbaa !10
  %6 = load ptr, ptr %4, align 8, !tbaa !10
  %7 = call ptr @OPENSSL_LH_new(ptr noundef %5, ptr noundef %6)
  %8 = call ptr @OPENSSL_LH_set_thunks(ptr noundef %7, ptr noundef @lh_ENGINE_PILE_hfn_thunk, ptr noundef @lh_ENGINE_PILE_cfn_thunk, ptr noundef @lh_ENGINE_PILE_doall_thunk, ptr noundef @lh_ENGINE_PILE_doall_arg_thunk)
  ret ptr %8
}

; Function Attrs: inlinehint nounwind uwtable
define internal i32 @sk_ENGINE_push(ptr noundef %0, ptr noundef %1) #3 {
  %3 = alloca ptr, align 8
  %4 = alloca ptr, align 8
  store ptr %0, ptr %3, align 8, !tbaa !29
  store ptr %1, ptr %4, align 8, !tbaa !11
  %5 = load ptr, ptr %3, align 8, !tbaa !29
  %6 = load ptr, ptr %4, align 8, !tbaa !11
  %7 = call i32 @OPENSSL_sk_push(ptr noundef %5, ptr noundef %6)
  ret i32 %7
}

; Function Attrs: inlinehint nounwind uwtable
define internal ptr @sk_ENGINE_delete_ptr(ptr noundef %0, ptr noundef %1) #3 {
  %3 = alloca ptr, align 8
  %4 = alloca ptr, align 8
  store ptr %0, ptr %3, align 8, !tbaa !29
  store ptr %1, ptr %4, align 8, !tbaa !11
  %5 = load ptr, ptr %3, align 8, !tbaa !29
  %6 = load ptr, ptr %4, align 8, !tbaa !11
  %7 = call ptr @OPENSSL_sk_delete_ptr(ptr noundef %5, ptr noundef %6)
  ret ptr %7
}

; Function Attrs: inlinehint nounwind uwtable
define internal void @sk_ENGINE_free(ptr noundef %0) #3 {
  %2 = alloca ptr, align 8
  store ptr %0, ptr %2, align 8, !tbaa !29
  %3 = load ptr, ptr %2, align 8, !tbaa !29
  call void @OPENSSL_sk_free(ptr noundef %3)
  ret void
}

; Function Attrs: inlinehint nounwind uwtable
define internal ptr @lh_ENGINE_PILE_insert(ptr noundef %0, ptr noundef %1) #3 {
  %3 = alloca ptr, align 8
  %4 = alloca ptr, align 8
  store ptr %0, ptr %3, align 8, !tbaa !27
  store ptr %1, ptr %4, align 8, !tbaa !20
  %5 = load ptr, ptr %3, align 8, !tbaa !27
  %6 = load ptr, ptr %4, align 8, !tbaa !20
  %7 = call ptr @OPENSSL_LH_insert(ptr noundef %5, ptr noundef %6)
  ret ptr %7
}

; Function Attrs: inlinehint nounwind uwtable
define internal ptr @sk_ENGINE_new_null() #3 {
  %1 = call ptr @OPENSSL_sk_new_null()
  ret ptr %1
}

; Function Attrs: inlinehint nounwind uwtable
define internal ptr @lh_ENGINE_PILE_retrieve(ptr noundef %0, ptr noundef %1) #3 {
  %3 = alloca ptr, align 8
  %4 = alloca ptr, align 8
  store ptr %0, ptr %3, align 8, !tbaa !27
  store ptr %1, ptr %4, align 8, !tbaa !20
  %5 = load ptr, ptr %3, align 8, !tbaa !27
  %6 = load ptr, ptr %4, align 8, !tbaa !20
  %7 = call ptr @OPENSSL_LH_retrieve(ptr noundef %5, ptr noundef %6)
  ret ptr %7
}

; Function Attrs: inlinehint nounwind uwtable
define internal void @lh_ENGINE_PILE_free(ptr noundef %0) #3 {
  %2 = alloca ptr, align 8
  store ptr %0, ptr %2, align 8, !tbaa !27
  %3 = load ptr, ptr %2, align 8, !tbaa !27
  call void @OPENSSL_LH_free(ptr noundef %3)
  ret void
}

; Function Attrs: nounwind uwtable
define internal i32 @int_table_check(ptr noundef %0, i32 noundef %1) #0 {
  %3 = alloca i32, align 4
  %4 = alloca ptr, align 8
  %5 = alloca i32, align 4
  %6 = alloca ptr, align 8
  %7 = alloca i32, align 4
  store ptr %0, ptr %4, align 8, !tbaa !7
  store i32 %1, ptr %5, align 4, !tbaa !3
  call void @llvm.lifetime.start.p0(i64 8, ptr %6) #4
  %8 = load ptr, ptr %4, align 8, !tbaa !7
  %9 = load ptr, ptr %8, align 8, !tbaa !15
  %10 = icmp ne ptr %9, null
  br i1 %10, label %11, label %12

11:                                               ; preds = %2
  store i32 1, ptr %3, align 4
  store i32 1, ptr %7, align 4
  br label %23

12:                                               ; preds = %2
  %13 = load i32, ptr %5, align 4, !tbaa !3
  %14 = icmp ne i32 %13, 0
  br i1 %14, label %16, label %15

15:                                               ; preds = %12
  store i32 0, ptr %3, align 4
  store i32 1, ptr %7, align 4
  br label %23

16:                                               ; preds = %12
  %17 = call ptr @lh_ENGINE_PILE_new(ptr noundef @engine_pile_hash, ptr noundef @engine_pile_cmp)
  store ptr %17, ptr %6, align 8, !tbaa !27
  %18 = icmp eq ptr %17, null
  br i1 %18, label %19, label %20

19:                                               ; preds = %16
  store i32 0, ptr %3, align 4
  store i32 1, ptr %7, align 4
  br label %23

20:                                               ; preds = %16
  %21 = load ptr, ptr %6, align 8, !tbaa !27
  %22 = load ptr, ptr %4, align 8, !tbaa !7
  store ptr %21, ptr %22, align 8, !tbaa !15
  store i32 1, ptr %3, align 4
  store i32 1, ptr %7, align 4
  br label %23

23:                                               ; preds = %20, %19, %15, %11
  call void @llvm.lifetime.end.p0(i64 8, ptr %6) #4
  %24 = load i32, ptr %3, align 4
  ret i32 %24
}

; Function Attrs: nounwind uwtable
define i32 @engine_table_register(ptr noundef %0, ptr noundef %1, ptr noundef %2, ptr noundef %3, i32 noundef %4, i32 noundef %5) #0 {
  %7 = alloca i32, align 4
  %8 = alloca ptr, align 8
  %9 = alloca ptr, align 8
  %10 = alloca ptr, align 8
  %11 = alloca ptr, align 8
  %12 = alloca i32, align 4
  %13 = alloca i32, align 4
  %14 = alloca i32, align 4
  %15 = alloca i32, align 4
  %16 = alloca %struct.st_engine_pile, align 8
  %17 = alloca ptr, align 8
  %18 = alloca i32, align 4
  store ptr %0, ptr %8, align 8, !tbaa !7
  store ptr %1, ptr %9, align 8, !tbaa !10
  store ptr %2, ptr %10, align 8, !tbaa !11
  store ptr %3, ptr %11, align 8, !tbaa !13
  store i32 %4, ptr %12, align 4, !tbaa !3
  store i32 %5, ptr %13, align 4, !tbaa !3
  call void @llvm.lifetime.start.p0(i64 4, ptr %14) #4
  store i32 0, ptr %14, align 4, !tbaa !3
  call void @llvm.lifetime.start.p0(i64 4, ptr %15) #4
  store i32 0, ptr %15, align 4, !tbaa !3
  call void @llvm.lifetime.start.p0(i64 32, ptr %16) #4
  call void @llvm.lifetime.start.p0(i64 8, ptr %17) #4
  %19 = load ptr, ptr @global_engine_lock, align 8, !tbaa !10
  %20 = call i32 @CRYPTO_THREAD_write_lock(ptr noundef %19)
  %21 = icmp ne i32 %20, 0
  br i1 %21, label %23, label %22

22:                                               ; preds = %6
  store i32 0, ptr %7, align 4
  store i32 1, ptr %18, align 4
  br label %148

23:                                               ; preds = %6
  %24 = load ptr, ptr %8, align 8, !tbaa !7
  %25 = load ptr, ptr %24, align 8, !tbaa !15
  %26 = icmp ne ptr %25, null
  br i1 %26, label %28, label %27

27:                                               ; preds = %23
  store i32 1, ptr %15, align 4, !tbaa !3
  br label %28

28:                                               ; preds = %27, %23
  %29 = load ptr, ptr %8, align 8, !tbaa !7
  %30 = call i32 @int_table_check(ptr noundef %29, i32 noundef 1)
  %31 = icmp ne i32 %30, 0
  br i1 %31, label %33, label %32

32:                                               ; preds = %28
  br label %144

33:                                               ; preds = %28
  %34 = load i32, ptr %15, align 4, !tbaa !3
  %35 = icmp ne i32 %34, 0
  br i1 %35, label %36, label %45

36:                                               ; preds = %33
  %37 = load ptr, ptr %9, align 8, !tbaa !10
  %38 = call i32 @engine_cleanup_add_first(ptr noundef %37)
  %39 = icmp ne i32 %38, 0
  br i1 %39, label %45, label %40

40:                                               ; preds = %36
  %41 = load ptr, ptr %8, align 8, !tbaa !7
  %42 = load ptr, ptr %41, align 8, !tbaa !15
  %43 = getelementptr inbounds nuw %struct.st_engine_table, ptr %42, i32 0, i32 0
  call void @lh_ENGINE_PILE_free(ptr noundef %43)
  %44 = load ptr, ptr %8, align 8, !tbaa !7
  store ptr null, ptr %44, align 8, !tbaa !15
  br label %144

45:                                               ; preds = %36, %33
  br label %46

46:                                               ; preds = %140, %45
  %47 = load i32, ptr %12, align 4, !tbaa !3
  %48 = add nsw i32 %47, -1
  store i32 %48, ptr %12, align 4, !tbaa !3
  %49 = icmp ne i32 %47, 0
  br i1 %49, label %50, label %143

50:                                               ; preds = %46
  %51 = load ptr, ptr %11, align 8, !tbaa !13
  %52 = load i32, ptr %51, align 4, !tbaa !3
  %53 = getelementptr inbounds nuw %struct.st_engine_pile, ptr %16, i32 0, i32 0
  store i32 %52, ptr %53, align 8, !tbaa !17
  %54 = load ptr, ptr %8, align 8, !tbaa !7
  %55 = load ptr, ptr %54, align 8, !tbaa !15
  %56 = getelementptr inbounds nuw %struct.st_engine_table, ptr %55, i32 0, i32 0
  %57 = call ptr @lh_ENGINE_PILE_retrieve(ptr noundef %56, ptr noundef %16)
  store ptr %57, ptr %17, align 8, !tbaa !20
  %58 = load ptr, ptr %17, align 8, !tbaa !20
  %59 = icmp ne ptr %58, null
  br i1 %59, label %101, label %60

60:                                               ; preds = %50
  %61 = call noalias ptr @CRYPTO_malloc(i64 noundef 32, ptr noundef @.str, i32 noundef 106)
  store ptr %61, ptr %17, align 8, !tbaa !20
  %62 = load ptr, ptr %17, align 8, !tbaa !20
  %63 = icmp eq ptr %62, null
  br i1 %63, label %64, label %65

64:                                               ; preds = %60
  br label %144

65:                                               ; preds = %60
  %66 = load ptr, ptr %17, align 8, !tbaa !20
  %67 = getelementptr inbounds nuw %struct.st_engine_pile, ptr %66, i32 0, i32 3
  store i32 1, ptr %67, align 8, !tbaa !22
  %68 = load ptr, ptr %11, align 8, !tbaa !13
  %69 = load i32, ptr %68, align 4, !tbaa !3
  %70 = load ptr, ptr %17, align 8, !tbaa !20
  %71 = getelementptr inbounds nuw %struct.st_engine_pile, ptr %70, i32 0, i32 0
  store i32 %69, ptr %71, align 8, !tbaa !17
  %72 = call ptr @sk_ENGINE_new_null()
  %73 = load ptr, ptr %17, align 8, !tbaa !20
  %74 = getelementptr inbounds nuw %struct.st_engine_pile, ptr %73, i32 0, i32 1
  store ptr %72, ptr %74, align 8, !tbaa !23
  %75 = load ptr, ptr %17, align 8, !tbaa !20
  %76 = getelementptr inbounds nuw %struct.st_engine_pile, ptr %75, i32 0, i32 1
  %77 = load ptr, ptr %76, align 8, !tbaa !23
  %78 = icmp ne ptr %77, null
  br i1 %78, label %81, label %79

79:                                               ; preds = %65
  %80 = load ptr, ptr %17, align 8, !tbaa !20
  call void @CRYPTO_free(ptr noundef %80, ptr noundef @.str, i32 noundef 113)
  br label %144

81:                                               ; preds = %65
  %82 = load ptr, ptr %17, align 8, !tbaa !20
  %83 = getelementptr inbounds nuw %struct.st_engine_pile, ptr %82, i32 0, i32 2
  store ptr null, ptr %83, align 8, !tbaa !24
  %84 = load ptr, ptr %8, align 8, !tbaa !7
  %85 = load ptr, ptr %84, align 8, !tbaa !15
  %86 = getelementptr inbounds nuw %struct.st_engine_table, ptr %85, i32 0, i32 0
  %87 = load ptr, ptr %17, align 8, !tbaa !20
  %88 = call ptr @lh_ENGINE_PILE_insert(ptr noundef %86, ptr noundef %87)
  %89 = load ptr, ptr %8, align 8, !tbaa !7
  %90 = load ptr, ptr %89, align 8, !tbaa !15
  %91 = getelementptr inbounds nuw %struct.st_engine_table, ptr %90, i32 0, i32 0
  %92 = call ptr @lh_ENGINE_PILE_retrieve(ptr noundef %91, ptr noundef %16)
  %93 = load ptr, ptr %17, align 8, !tbaa !20
  %94 = icmp ne ptr %92, %93
  br i1 %94, label %95, label %100

95:                                               ; preds = %81
  %96 = load ptr, ptr %17, align 8, !tbaa !20
  %97 = getelementptr inbounds nuw %struct.st_engine_pile, ptr %96, i32 0, i32 1
  %98 = load ptr, ptr %97, align 8, !tbaa !23
  call void @sk_ENGINE_free(ptr noundef %98)
  %99 = load ptr, ptr %17, align 8, !tbaa !20
  call void @CRYPTO_free(ptr noundef %99, ptr noundef @.str, i32 noundef 120)
  br label %144

100:                                              ; preds = %81
  br label %101

101:                                              ; preds = %100, %50
  %102 = load ptr, ptr %17, align 8, !tbaa !20
  %103 = getelementptr inbounds nuw %struct.st_engine_pile, ptr %102, i32 0, i32 1
  %104 = load ptr, ptr %103, align 8, !tbaa !23
  %105 = load ptr, ptr %10, align 8, !tbaa !11
  %106 = call ptr @sk_ENGINE_delete_ptr(ptr noundef %104, ptr noundef %105)
  %107 = load ptr, ptr %17, align 8, !tbaa !20
  %108 = getelementptr inbounds nuw %struct.st_engine_pile, ptr %107, i32 0, i32 1
  %109 = load ptr, ptr %108, align 8, !tbaa !23
  %110 = load ptr, ptr %10, align 8, !tbaa !11
  %111 = call i32 @sk_ENGINE_push(ptr noundef %109, ptr noundef %110)
  %112 = icmp ne i32 %111, 0
  br i1 %112, label %114, label %113

113:                                              ; preds = %101
  br label %144

114:                                              ; preds = %101
  %115 = load ptr, ptr %17, align 8, !tbaa !20
  %116 = getelementptr inbounds nuw %struct.st_engine_pile, ptr %115, i32 0, i32 3
  store i32 0, ptr %116, align 8, !tbaa !22
  %117 = load i32, ptr %13, align 4, !tbaa !3
  %118 = icmp ne i32 %117, 0
  br i1 %118, label %119, label %140

119:                                              ; preds = %114
  %120 = load ptr, ptr %10, align 8, !tbaa !11
  %121 = call i32 @engine_unlocked_init(ptr noundef %120)
  %122 = icmp ne i32 %121, 0
  br i1 %122, label %124, label %123

123:                                              ; preds = %119
  call void @ERR_new()
  call void @ERR_set_debug(ptr noundef @.str, i32 noundef 135, ptr noundef @__func__.engine_table_register)
  call void (i32, i32, ptr, ...) @ERR_set_error(i32 noundef 38, i32 noundef 109, ptr noundef null)
  br label %144

124:                                              ; preds = %119
  %125 = load ptr, ptr %17, align 8, !tbaa !20
  %126 = getelementptr inbounds nuw %struct.st_engine_pile, ptr %125, i32 0, i32 2
  %127 = load ptr, ptr %126, align 8, !tbaa !24
  %128 = icmp ne ptr %127, null
  br i1 %128, label %129, label %134

129:                                              ; preds = %124
  %130 = load ptr, ptr %17, align 8, !tbaa !20
  %131 = getelementptr inbounds nuw %struct.st_engine_pile, ptr %130, i32 0, i32 2
  %132 = load ptr, ptr %131, align 8, !tbaa !24
  %133 = call i32 @engine_unlocked_finish(ptr noundef %132, i32 noundef 0)
  br label %134

134:                                              ; preds = %129, %124
  %135 = load ptr, ptr %10, align 8, !tbaa !11
  %136 = load ptr, ptr %17, align 8, !tbaa !20
  %137 = getelementptr inbounds nuw %struct.st_engine_pile, ptr %136, i32 0, i32 2
  store ptr %135, ptr %137, align 8, !tbaa !24
  %138 = load ptr, ptr %17, align 8, !tbaa !20
  %139 = getelementptr inbounds nuw %struct.st_engine_pile, ptr %138, i32 0, i32 3
  store i32 1, ptr %139, align 8, !tbaa !22
  br label %140

140:                                              ; preds = %134, %114
  %141 = load ptr, ptr %11, align 8, !tbaa !13
  %142 = getelementptr inbounds nuw i32, ptr %141, i32 1
  store ptr %142, ptr %11, align 8, !tbaa !13
  br label %46, !llvm.loop !25

143:                                              ; preds = %46
  store i32 1, ptr %14, align 4, !tbaa !3
  br label %144

144:                                              ; preds = %143, %123, %113, %95, %79, %64, %40, %32
  %145 = load ptr, ptr @global_engine_lock, align 8, !tbaa !10
  %146 = call i32 @CRYPTO_THREAD_unlock(ptr noundef %145)
  %147 = load i32, ptr %14, align 4, !tbaa !3
  store i32 %147, ptr %7, align 4
  store i32 1, ptr %18, align 4
  br label %148

148:                                              ; preds = %144, %22
  call void @llvm.lifetime.end.p0(i64 8, ptr %17) #4
  call void @llvm.lifetime.end.p0(i64 32, ptr %16) #4
  call void @llvm.lifetime.end.p0(i64 4, ptr %15) #4
  call void @llvm.lifetime.end.p0(i64 4, ptr %14) #4
  %149 = load i32, ptr %7, align 4
  ret i32 %149
}