; Function Attrs: nounwind uwtable
define range(i32 0, 2) i32 @engine_table_register(ptr noundef captures(none) %0, ptr noundef %1, ptr noundef %2, ptr noundef readonly captures(none) %3, i32 noundef %4, i32 noundef %5) local_unnamed_addr #2 {
  %7 = alloca %struct.st_engine_pile, align 8
  call void @llvm.lifetime.start.p0(i64 32, ptr nonnull %7) #7
  %8 = load ptr, ptr @global_engine_lock, align 8, !tbaa !7
  %9 = tail call i32 @CRYPTO_THREAD_write_lock(ptr noundef %8) #7
  %.not = icmp eq i32 %9, 0
  br i1 %.not, label %90, label %10

10:                                               ; preds = %6
  %11 = load ptr, ptr %0, align 8, !tbaa !9
  %.not46.not = icmp eq ptr %11, null
  br i1 %.not46.not, label %12, label %20

12:                                               ; preds = %10
  %13 = tail call ptr @OPENSSL_LH_new(ptr noundef nonnull @engine_pile_hash, ptr noundef nonnull @engine_pile_cmp) #7
  %14 = tail call ptr @OPENSSL_LH_set_thunks(ptr noundef %13, ptr noundef nonnull @lh_ENGINE_PILE_hfn_thunk, ptr noundef nonnull @lh_ENGINE_PILE_cfn_thunk, ptr noundef nonnull @lh_ENGINE_PILE_doall_thunk, ptr noundef nonnull @lh_ENGINE_PILE_doall_arg_thunk) #7
  %15 = icmp eq ptr %14, null
  br i1 %15, label %int_table_check.exit, label %16

16:                                               ; preds = %12
  store ptr %14, ptr %0, align 8, !tbaa !9
  %17 = tail call i32 @engine_cleanup_add_first(ptr noundef %1) #7
  %.not49 = icmp eq i32 %17, 0
  br i1 %.not49, label %18, label %20

18:                                               ; preds = %16
  %19 = load ptr, ptr %0, align 8, !tbaa !9
  tail call void @OPENSSL_LH_free(ptr noundef %19) #7
  store ptr null, ptr %0, align 8, !tbaa !9
  br label %int_table_check.exit

20:                                               ; preds = %10, %16
  %.not5064 = icmp eq i32 %4, 0
  br i1 %.not5064, label %int_table_check.exit, label %.lr.ph

.lr.ph:                                           ; preds = %20
  %21 = add nsw i32 %4, -1
  %.not55 = icmp eq i32 %5, 0
  br i1 %.not55, label %.lr.ph.split.us, label %.lr.ph.split

.lr.ph.split.us:                                  ; preds = %.lr.ph, %46
  %22 = phi i32 [ %49, %46 ], [ %21, %.lr.ph ]
  %.04265.us = phi ptr [ %48, %46 ], [ %3, %.lr.ph ]
  %23 = load i32, ptr %.04265.us, align 4, !tbaa !3
  store i32 %23, ptr %7, align 8, !tbaa !11
  %24 = load ptr, ptr %0, align 8, !tbaa !9
  %25 = call ptr @OPENSSL_LH_retrieve(ptr noundef %24, ptr noundef nonnull %7) #7
  %.not51.us = icmp eq ptr %25, null
  br i1 %.not51.us, label %26, label %40

26:                                               ; preds = %.lr.ph.split.us
  %27 = call noalias ptr @CRYPTO_malloc(i64 noundef 32, ptr noundef nonnull @.str, i32 noundef 106) #7
  %28 = icmp eq ptr %27, null
  br i1 %28, label %int_table_check.exit, label %29

29:                                               ; preds = %26
  %30 = getelementptr inbounds nuw i8, ptr %27, i64 24
  store i32 1, ptr %30, align 8, !tbaa !15
  %31 = load i32, ptr %.04265.us, align 4, !tbaa !3
  store i32 %31, ptr %27, align 8, !tbaa !11
  %32 = call ptr @OPENSSL_sk_new_null() #7
  %33 = getelementptr inbounds nuw i8, ptr %27, i64 8
  store ptr %32, ptr %33, align 8, !tbaa !16
  %.not52.us = icmp eq ptr %32, null
  br i1 %.not52.us, label %.split.us, label %34

34:                                               ; preds = %29
  %35 = getelementptr inbounds nuw i8, ptr %27, i64 16
  store ptr null, ptr %35, align 8, !tbaa !17
  %36 = load ptr, ptr %0, align 8, !tbaa !9
  %37 = call ptr @OPENSSL_LH_insert(ptr noundef %36, ptr noundef nonnull %27) #7
  %38 = load ptr, ptr %0, align 8, !tbaa !9
  %39 = call ptr @OPENSSL_LH_retrieve(ptr noundef %38, ptr noundef nonnull %7) #7
  %.not53.us = icmp eq ptr %39, %27
  br i1 %.not53.us, label %40, label %.split72.us

40:                                               ; preds = %34, %.lr.ph.split.us
  %.0.us = phi ptr [ %25, %.lr.ph.split.us ], [ %27, %34 ]
  %41 = getelementptr inbounds nuw i8, ptr %.0.us, i64 8
  %42 = load ptr, ptr %41, align 8, !tbaa !16
  %43 = call ptr @OPENSSL_sk_delete_ptr(ptr noundef %42, ptr noundef %2) #7
  %44 = load ptr, ptr %41, align 8, !tbaa !16
  %45 = call i32 @OPENSSL_sk_push(ptr noundef %44, ptr noundef %2) #7
  %.not54.us = icmp eq i32 %45, 0
  br i1 %.not54.us, label %int_table_check.exit, label %46

46:                                               ; preds = %40
  %47 = getelementptr inbounds nuw i8, ptr %.0.us, i64 24
  store i32 0, ptr %47, align 8, !tbaa !15
  %48 = getelementptr inbounds nuw i8, ptr %.04265.us, i64 4
  %49 = add nsw i32 %22, -1
  %.not50.us = icmp eq i32 %22, 0
  br i1 %.not50.us, label %int_table_check.exit, label %.lr.ph.split.us, !llvm.loop !18

.lr.ph.split:                                     ; preds = %.lr.ph, %85
  %50 = phi i32 [ %87, %85 ], [ %21, %.lr.ph ]
  %.04265 = phi ptr [ %86, %85 ], [ %3, %.lr.ph ]
  %51 = load i32, ptr %.04265, align 4, !tbaa !3
  store i32 %51, ptr %7, align 8, !tbaa !11
  %52 = load ptr, ptr %0, align 8, !tbaa !9
  %53 = call ptr @OPENSSL_LH_retrieve(ptr noundef %52, ptr noundef nonnull %7) #7
  %.not51 = icmp eq ptr %53, null
  br i1 %.not51, label %54, label %70

54:                                               ; preds = %.lr.ph.split
  %55 = call noalias ptr @CRYPTO_malloc(i64 noundef 32, ptr noundef nonnull @.str, i32 noundef 106) #7
  %56 = icmp eq ptr %55, null
  br i1 %56, label %int_table_check.exit, label %57

57:                                               ; preds = %54
  %58 = getelementptr inbounds nuw i8, ptr %55, i64 24
  store i32 1, ptr %58, align 8, !tbaa !15
  %59 = load i32, ptr %.04265, align 4, !tbaa !3
  store i32 %59, ptr %55, align 8, !tbaa !11
  %60 = call ptr @OPENSSL_sk_new_null() #7
  %61 = getelementptr inbounds nuw i8, ptr %55, i64 8
  store ptr %60, ptr %61, align 8, !tbaa !16
  %.not52 = icmp eq ptr %60, null
  br i1 %.not52, label %.split.us, label %62

.split.us:                                        ; preds = %57, %29
  %.us-phi70 = phi ptr [ %27, %29 ], [ %55, %57 ]
  call void @CRYPTO_free(ptr noundef nonnull %.us-phi70, ptr noundef nonnull @.str, i32 noundef 113) #7
  br label %int_table_check.exit

62:                                               ; preds = %57
  %63 = getelementptr inbounds nuw i8, ptr %55, i64 16
  store ptr null, ptr %63, align 8, !tbaa !17
  %64 = load ptr, ptr %0, align 8, !tbaa !9
  %65 = call ptr @OPENSSL_LH_insert(ptr noundef %64, ptr noundef nonnull %55) #7
  %66 = load ptr, ptr %0, align 8, !tbaa !9
  %67 = call ptr @OPENSSL_LH_retrieve(ptr noundef %66, ptr noundef nonnull %7) #7
  %.not53 = icmp eq ptr %67, %55
  br i1 %.not53, label %70, label %.split72.us

.split72.us:                                      ; preds = %62, %34
  %.us-phi73 = phi ptr [ %27, %34 ], [ %55, %62 ]
  %68 = getelementptr inbounds nuw i8, ptr %.us-phi73, i64 8
  %69 = load ptr, ptr %68, align 8, !tbaa !16
  call void @OPENSSL_sk_free(ptr noundef %69) #7
  call void @CRYPTO_free(ptr noundef nonnull %.us-phi73, ptr noundef nonnull @.str, i32 noundef 120) #7
  br label %int_table_check.exit

70:                                               ; preds = %62, %.lr.ph.split
  %.0 = phi ptr [ %53, %.lr.ph.split ], [ %55, %62 ]
  %71 = getelementptr inbounds nuw i8, ptr %.0, i64 8
  %72 = load ptr, ptr %71, align 8, !tbaa !16
  %73 = call ptr @OPENSSL_sk_delete_ptr(ptr noundef %72, ptr noundef %2) #7
  %74 = load ptr, ptr %71, align 8, !tbaa !16
  %75 = call i32 @OPENSSL_sk_push(ptr noundef %74, ptr noundef %2) #7
  %.not54 = icmp eq i32 %75, 0
  br i1 %.not54, label %int_table_check.exit, label %76

76:                                               ; preds = %70
  %77 = getelementptr inbounds nuw i8, ptr %.0, i64 24
  store i32 0, ptr %77, align 8, !tbaa !15
  %78 = call i32 @engine_unlocked_init(ptr noundef %2) #7
  %.not56 = icmp eq i32 %78, 0
  br i1 %.not56, label %79, label %80

79:                                               ; preds = %76
  call void @ERR_new() #7
  call void @ERR_set_debug(ptr noundef nonnull @.str, i32 noundef 135, ptr noundef nonnull @__func__.engine_table_register) #7
  call void (i32, i32, ptr, ...) @ERR_set_error(i32 noundef 38, i32 noundef 109, ptr noundef null) #7
  br label %int_table_check.exit

80:                                               ; preds = %76
  %81 = getelementptr inbounds nuw i8, ptr %.0, i64 16
  %82 = load ptr, ptr %81, align 8, !tbaa !17
  %.not57 = icmp eq ptr %82, null
  br i1 %.not57, label %85, label %83

83:                                               ; preds = %80
  %84 = call i32 @engine_unlocked_finish(ptr noundef nonnull %82, i32 noundef 0) #7
  br label %85

85:                                               ; preds = %83, %80
  store ptr %2, ptr %81, align 8, !tbaa !17
  store i32 1, ptr %77, align 8, !tbaa !15
  %86 = getelementptr inbounds nuw i8, ptr %.04265, i64 4
  %87 = add nsw i32 %50, -1
  %.not50 = icmp eq i32 %50, 0
  br i1 %.not50, label %int_table_check.exit, label %.lr.ph.split, !llvm.loop !18

int_table_check.exit:                             ; preds = %54, %70, %85, %26, %40, %46, %20, %12, %79, %.split72.us, %.split.us, %18
  %.039 = phi i32 [ 0, %79 ], [ 0, %.split72.us ], [ 0, %.split.us ], [ 0, %18 ], [ 0, %12 ], [ 1, %20 ], [ 0, %26 ], [ 0, %40 ], [ 1, %46 ], [ 0, %54 ], [ 0, %70 ], [ 1, %85 ]
  %88 = load ptr, ptr @global_engine_lock, align 8, !tbaa !7
  %89 = call i32 @CRYPTO_THREAD_unlock(ptr noundef %88) #7
  br label %90

90:                                               ; preds = %6, %int_table_check.exit
  %.040 = phi i32 [ %.039, %int_table_check.exit ], [ 0, %6 ]
  call void @llvm.lifetime.end.p0(i64 32, ptr nonnull %7) #7
  ret i32 %.040
}